ccopy_reg
_reconstructor
p0
(csklearn.preprocessing.label
MultiLabelBinarizer
p1
c__builtin__
object
p2
Ntp3
Rp4
(dp5
S'classes'
p6
(lp7
S'command'
p8
aS'air'
p9
aS'flow'
p10
aS'supply'
p11
aS'occupied'
p12
aS'setpoint'
p13
aS'cooling'
p14
aS'temperature'
p15
aS'heating'
p16
aS'damper'
p17
aS'sensor'
p18
aS'zone'
p19
aS'adjustment'
p20
aS'min'
p21
aS'max'
p22
aS'position'
p23
aS'valve'
p24
aS'reheat'
p25
aS'unknown'
p26
aS'alarm'
p27
aS'status'
p28
aS'occupancy'
p29
aS'fan'
p30
aS'temporary'
p31
aS'run'
p32
aS'high'
p33
aS'water'
p34
aS'humidity'
p35
aS'direction'
p36
aS'off'
p37
aS'current'
p38
aS'pump'
p39
aS'reference'
p40
aS'low'
p41
aS'enable'
p42
aS'pressure'
p43
aS'frequency'
p44
aS'fault'
p45
aS'return'
p46
aS'speed'
p47
aS'indicator'
p48
aS'loss'
p49
aS'on'
p50
aS'filter'
p51
aS'output'
p52
aS'limit'
p53
aS'co2'
p54
aS'stop'
p55
aS'rated'
p56
aS'start'
p57
aS'reset'
p58
aS'torque'
p59
aS'power'
p60
aS'overload'
p61
aS'motor'
p62
aS'lock'
p63
aS'pan'
p64
aS'drive'
p65
aS'average'
p66
aS'chilled'
p67
aS'outside'
p68
aS'exhaust'
p69
aS'differential'
p70
aS'detected'
p71
aS'shed'
p72
aS'tolerance'
p73
aS'turn'
p74
aS'load'
p75
aS'compressor'
p76
aS'demand'
p77
aS'calculation'
p78
aS'head'
p79
aS'variable'
p80
aS'voltage'
p81
aS'emergency'
p82
aS'level'
p83
aS'auto'
p84
aS'manual'
p85
aS'hot'
p86
aS'time'
p87
aS'discharge'
p88
aS'wind'
p89
aS'standby'
p90
aS'booster'
p91
aS'dehumidification'
p92
aS'humidification'
p93
aS'mode'
p94
aS'capacity'
p95
aS'change'
p96
aS'smoke'
p97
aS'communication'
p98
aS'humidifier'
p99
aS'maintenance'
p100
aS'energy'
p101
aS'medium'
p102
aS'suction'
p103
aS'liquid'
p104
aS'relative'
p105
aS'enthalpy'
p106
aS'lead'
p107
aS'battery'
p108
aS'economizer'
p109
aS'switch'
p110
aS'activated'
p111
aS'dc'
p112
aS'static'
p113
aS'leak'
p114
aS'by'
p115
aS'system'
p116
aS'bus'
p117
aS'unoccupied'
p118
aS'deceleration'
p119
aS'solar'
p120
aS'ready'
p121
aS'acceleration'
p122
aS'angle'
p123
aS'band'
p124
aS'shutdown'
p125
aS'dead'
p126
aS'mixed'
p127
aS'condensate'
p128
aS'detection'
p129
aS'zenith'
p130
aS'when'
p131
aS'delay'
p132
aS'disable'
p133
aS'epo'
p134
aS'azimuth'
p135
asS'sparse_output'
p136
I00
sS'classes_'
p137
cnumpy.core.multiarray
_reconstruct
p138
(cnumpy
ndarray
p139
(I0
tp140
S'b'
p141
tp142
Rp143
(I1
(I128
tp144
cnumpy
dtype
p145
(S'O8'
p146
I0
I1
tp147
Rp148
(I3
S'|'
p149
NNNI-1
I-1
I63
tp150
bI00
(lp151
g8
ag9
ag10
ag11
ag12
ag13
ag14
ag15
ag16
ag17
ag18
ag19
ag20
ag21
ag22
ag23
ag24
ag25
ag26
ag27
ag28
ag29
ag30
ag31
ag32
ag33
ag34
ag35
ag36
ag37
ag38
ag39
ag40
ag41
ag42
ag43
ag44
ag45
ag46
ag47
ag48
ag49
ag50
ag51
ag52
ag53
ag54
ag55
ag56
ag57
ag58
ag59
ag60
ag61
ag62
ag63
ag64
ag65
ag66
ag67
ag68
ag69
ag70
ag71
ag72
ag73
ag74
ag75
ag76
ag77
ag78
ag79
ag80
ag81
ag82
ag83
ag84
ag85
ag86
ag87
ag88
ag89
ag90
ag91
ag92
ag93
ag94
ag95
ag96
ag97
ag98
ag99
ag100
ag101
ag102
ag103
ag104
ag105
ag106
ag107
ag108
ag109
ag110
ag111
ag112
ag113
ag114
ag115
ag116
ag117
ag118
ag119
ag120
ag121
ag122
ag123
ag124
ag125
ag126
ag127
ag128
ag129
ag130
ag131
ag132
ag133
ag134
ag135
atp152
bsS'_sklearn_version'
p153
S'0.18.1'
p154
sb.